target datalayout = "e-m:e-p270:32:32-p271:32:32-p272:64:64-i64:64-i128:128-f80:128-n8:16:32:64-S128"
target triple = "x86_64-unknown-linux-gnu"

%"struct.facebook::velox::memory::MemoryArbitrator::Stats" = type { i64, i64, i64, i64, i64, i64, i64, i64, i64, i64, i64, i64, i64, i64 }

; Function Attrs: mustprogress nounwind uwtable
define void @_ZN8facebook5velox6memory16MemoryArbitrator5StatsC2Emmmmmmmmmmmmmm(ptr noundef nonnull align 8 dereferenceable(112) %this, i64 noundef %_numRequests, i64 noundef %_numSucceeded, i64 noundef %_numAborted, i64 noundef %_numFailures, i64 noundef %_queueTimeUs, i64 noundef %_arbitrationTimeUs, i64 noundef %_numShrunkBytes, i64 noundef %_numReclaimedBytes, i64 noundef %_maxCapacityBytes, i64 noundef %_freeCapacityBytes, i64 noundef %_reclaimTimeUs, i64 noundef %_numNonReclaimableAttempts, i64 noundef %_numReserves, i64 noundef %_numReleases) unnamed_addr #2 align 2 {
entry:
  %this.addr = alloca ptr, align 8
  %_numRequests.addr = alloca i64, align 8
  %_numSucceeded.addr = alloca i64, align 8
  %_numAborted.addr = alloca i64, align 8
  %_numFailures.addr = alloca i64, align 8
  %_queueTimeUs.addr = alloca i64, align 8
  %_arbitrationTimeUs.addr = alloca i64, align 8
  %_numShrunkBytes.addr = alloca i64, align 8
  %_numReclaimedBytes.addr = alloca i64, align 8
  %_maxCapacityBytes.addr = alloca i64, align 8
  %_freeCapacityBytes.addr = alloca i64, align 8
  %_reclaimTimeUs.addr = alloca i64, align 8
  %_numNonReclaimableAttempts.addr = alloca i64, align 8
  %_numReserves.addr = alloca i64, align 8
  %_numReleases.addr = alloca i64, align 8
  store ptr %this, ptr %this.addr, align 8
  store i64 %_numRequests, ptr %_numRequests.addr, align 8
  store i64 %_numSucceeded, ptr %_numSucceeded.addr, align 8
  store i64 %_numAborted, ptr %_numAborted.addr, align 8
  store i64 %_numFailures, ptr %_numFailures.addr, align 8
  store i64 %_queueTimeUs, ptr %_queueTimeUs.addr, align 8
  store i64 %_arbitrationTimeUs, ptr %_arbitrationTimeUs.addr, align 8
  store i64 %_numShrunkBytes, ptr %_numShrunkBytes.addr, align 8
  store i64 %_numReclaimedBytes, ptr %_numReclaimedBytes.addr, align 8
  store i64 %_maxCapacityBytes, ptr %_maxCapacityBytes.addr, align 8
  store i64 %_freeCapacityBytes, ptr %_freeCapacityBytes.addr, align 8
  store i64 %_reclaimTimeUs, ptr %_reclaimTimeUs.addr, align 8
  store i64 %_numNonReclaimableAttempts, ptr %_numNonReclaimableAttempts.addr, align 8
  store i64 %_numReserves, ptr %_numReserves.addr, align 8
  store i64 %_numReleases, ptr %_numReleases.addr, align 8
  %this1 = load ptr, ptr %this.addr, align 8
  %numRequests = getelementptr inbounds %"struct.facebook::velox::memory::MemoryArbitrator::Stats", ptr %this1, i32 0, i32 0
  %0 = load i64, ptr %_numRequests.addr, align 8
  store i64 %0, ptr %numRequests, align 8
  %numSucceeded = getelementptr inbounds %"struct.facebook::velox::memory::MemoryArbitrator::Stats", ptr %this1, i32 0, i32 1
  %1 = load i64, ptr %_numSucceeded.addr, align 8
  store i64 %1, ptr %numSucceeded, align 8
  %numAborted = getelementptr inbounds %"struct.facebook::velox::memory::MemoryArbitrator::Stats", ptr %this1, i32 0, i32 2
  %2 = load i64, ptr %_numAborted.addr, align 8
  store i64 %2, ptr %numAborted, align 8
  %numFailures = getelementptr inbounds %"struct.facebook::velox::memory::MemoryArbitrator::Stats", ptr %this1, i32 0, i32 3
  %3 = load i64, ptr %_numFailures.addr, align 8
  store i64 %3, ptr %numFailures, align 8
  %queueTimeUs = getelementptr inbounds %"struct.facebook::velox::memory::MemoryArbitrator::Stats", ptr %this1, i32 0, i32 4
  %4 = load i64, ptr %_queueTimeUs.addr, align 8
  store i64 %4, ptr %queueTimeUs, align 8
  %arbitrationTimeUs = getelementptr inbounds %"struct.facebook::velox::memory::MemoryArbitrator::Stats", ptr %this1, i32 0, i32 5
  %5 = load i64, ptr %_arbitrationTimeUs.addr, align 8
  store i64 %5, ptr %arbitrationTimeUs, align 8
  %numShrunkBytes = getelementptr inbounds %"struct.facebook::velox::memory::MemoryArbitrator::Stats", ptr %this1, i32 0, i32 6
  %6 = load i64, ptr %_numShrunkBytes.addr, align 8
  store i64 %6, ptr %numShrunkBytes, align 8
  %numReclaimedBytes = getelementptr inbounds %"struct.facebook::velox::memory::MemoryArbitrator::Stats", ptr %this1, i32 0, i32 7
  %7 = load i64, ptr %_numReclaimedBytes.addr, align 8
  store i64 %7, ptr %numReclaimedBytes, align 8
  %maxCapacityBytes = getelementptr inbounds %"struct.facebook::velox::memory::MemoryArbitrator::Stats", ptr %this1, i32 0, i32 8
  %8 = load i64, ptr %_maxCapacityBytes.addr, align 8
  store i64 %8, ptr %maxCapacityBytes, align 8
  %freeCapacityBytes = getelementptr inbounds %"struct.facebook::velox::memory::MemoryArbitrator::Stats", ptr %this1, i32 0, i32 9
  %9 = load i64, ptr %_freeCapacityBytes.addr, align 8
  store i64 %9, ptr %freeCapacityBytes, align 8
  %reclaimTimeUs = getelementptr inbounds %"struct.facebook::velox::memory::MemoryArbitrator::Stats", ptr %this1, i32 0, i32 10
  %10 = load i64, ptr %_reclaimTimeUs.addr, align 8
  store i64 %10, ptr %reclaimTimeUs, align 8
  %numNonReclaimableAttempts = getelementptr inbounds %"struct.facebook::velox::memory::MemoryArbitrator::Stats", ptr %this1, i32 0, i32 11
  %11 = load i64, ptr %_numNonReclaimableAttempts.addr, align 8
  store i64 %11, ptr %numNonReclaimableAttempts, align 8
  %numReserves = getelementptr inbounds %"struct.facebook::velox::memory::MemoryArbitrator::Stats", ptr %this1, i32 0, i32 12
  %12 = load i64, ptr %_numReserves.addr, align 8
  store i64 %12, ptr %numReserves, align 8
  %numReleases = getelementptr inbounds %"struct.facebook::velox::memory::MemoryArbitrator::Stats", ptr %this1, i32 0, i32 13
  %13 = load i64, ptr %_numReleases.addr, align 8
  store i64 %13, ptr %numReleases, align 8
  ret void
}