; Function Attrs: mustprogress nofree norecurse nosync nounwind willreturn memory(argmem: write) uwtable
define void @_ZN8facebook5velox6memory16MemoryArbitrator5StatsC2Emmmmmmmmmmmmmm(ptr nocapture noundef nonnull writeonly align 8 dereferenceable(112) %this, i64 noundef %_numRequests, i64 noundef %_numSucceeded, i64 noundef %_numAborted, i64 noundef %_numFailures, i64 noundef %_queueTimeUs, i64 noundef %_arbitrationTimeUs, i64 noundef %_numShrunkBytes, i64 noundef %_numReclaimedBytes, i64 noundef %_maxCapacityBytes, i64 noundef %_freeCapacityBytes, i64 noundef %_reclaimTimeUs, i64 noundef %_numNonReclaimableAttempts, i64 noundef %_numReserves, i64 noundef %_numReleases) unnamed_addr #8 align 2 {
entry:
  store i64 %_numRequests, ptr %this, align 8
  %numSucceeded = getelementptr inbounds i8, ptr %this, i64 8
  store i64 %_numSucceeded, ptr %numSucceeded, align 8
  %numAborted = getelementptr inbounds i8, ptr %this, i64 16
  store i64 %_numAborted, ptr %numAborted, align 8
  %numFailures = getelementptr inbounds i8, ptr %this, i64 24
  store i64 %_numFailures, ptr %numFailures, align 8
  %queueTimeUs = getelementptr inbounds i8, ptr %this, i64 32
  store i64 %_queueTimeUs, ptr %queueTimeUs, align 8
  %arbitrationTimeUs = getelementptr inbounds i8, ptr %this, i64 40
  store i64 %_arbitrationTimeUs, ptr %arbitrationTimeUs, align 8
  %numShrunkBytes = getelementptr inbounds i8, ptr %this, i64 48
  store i64 %_numShrunkBytes, ptr %numShrunkBytes, align 8
  %numReclaimedBytes = getelementptr inbounds i8, ptr %this, i64 56
  store i64 %_numReclaimedBytes, ptr %numReclaimedBytes, align 8
  %maxCapacityBytes = getelementptr inbounds i8, ptr %this, i64 64
  store i64 %_maxCapacityBytes, ptr %maxCapacityBytes, align 8
  %freeCapacityBytes = getelementptr inbounds i8, ptr %this, i64 72
  store i64 %_freeCapacityBytes, ptr %freeCapacityBytes, align 8
  %reclaimTimeUs = getelementptr inbounds i8, ptr %this, i64 80
  store i64 %_reclaimTimeUs, ptr %reclaimTimeUs, align 8
  %numNonReclaimableAttempts = getelementptr inbounds i8, ptr %this, i64 88
  store i64 %_numNonReclaimableAttempts, ptr %numNonReclaimableAttempts, align 8
  %numReserves = getelementptr inbounds i8, ptr %this, i64 96
  store i64 %_numReserves, ptr %numReserves, align 8
  %numReleases = getelementptr inbounds i8, ptr %this, i64 104
  store i64 %_numReleases, ptr %numReleases, align 8
  ret void
}